; ModuleID = '32/252.c'
source_filename = "32/252.c"
target datalayout = "e-m:e-p270:32:32-p271:32:32-p272:64:64-i64:64-f80:128-n8:16:32:64-S128"
target triple = "x86_64-pc-linux-gnu"

@.str = private unnamed_addr constant [3 x i8] c"%d\00", align 1
@.str.1 = private unnamed_addr constant [3 x i8] c"%c\00", align 1
@.str.2 = private unnamed_addr constant [4 x i8] c"%c\0A\00", align 1

; Function Attrs: noinline nounwind uwtable
define dso_local void @main() #0 {
  %1 = alloca i32, align 4
  %2 = alloca i32, align 4
  %3 = alloca i32, align 4
  %4 = alloca [100 x i32], align 16
  %5 = alloca [100 x i32], align 16
  %6 = alloca [100 x i32], align 16
  %7 = alloca [100 x [101 x i8]], align 16
  %8 = alloca [100 x [101 x i8]], align 16
  %9 = alloca [100 x [101 x i8]], align 16
  %10 = call i32 (i8*, ...) @__isoc99_scanf(i8* getelementptr inbounds ([3 x i8], [3 x i8]* @.str, i64 0, i64 0), i32* %1)
  %11 = call i32 @getchar()
  store i32 0, i32* %2, align 4
  br label %12

12:                                               ; preds = %48, %0
  %13 = load i32, i32* %2, align 4
  %14 = load i32, i32* %1, align 4
  %15 = icmp slt i32 %13, %14
  br i1 %15, label %16, label %51

16:                                               ; preds = %12
  %17 = load i32, i32* %2, align 4
  %18 = sext i32 %17 to i64
  %19 = getelementptr inbounds [100 x [101 x i8]], [100 x [101 x i8]]* %7, i64 0, i64 %18
  %20 = getelementptr inbounds [101 x i8], [101 x i8]* %19, i64 0, i64 0
  %21 = call i32 (i8*, ...) bitcast (i32 (...)* @gets to i32 (i8*, ...)*)(i8* %20)
  %22 = load i32, i32* %2, align 4
  %23 = sext i32 %22 to i64
  %24 = getelementptr inbounds [100 x [101 x i8]], [100 x [101 x i8]]* %8, i64 0, i64 %23
  %25 = getelementptr inbounds [101 x i8], [101 x i8]* %24, i64 0, i64 0
  %26 = call i32 (i8*, ...) bitcast (i32 (...)* @gets to i32 (i8*, ...)*)(i8* %25)
  %27 = call i32 @getchar()
  %28 = load i32, i32* %2, align 4
  %29 = sext i32 %28 to i64
  %30 = getelementptr inbounds [100 x [101 x i8]], [100 x [101 x i8]]* %7, i64 0, i64 %29
  %31 = getelementptr inbounds [101 x i8], [101 x i8]* %30, i64 0, i64 0
  %32 = call i64 @strlen(i8* %31) #3
  %33 = sub i64 %32, 1
  %34 = trunc i64 %33 to i32
  %35 = load i32, i32* %2, align 4
  %36 = sext i32 %35 to i64
  %37 = getelementptr inbounds [100 x i32], [100 x i32]* %4, i64 0, i64 %36
  store i32 %34, i32* %37, align 4
  %38 = load i32, i32* %2, align 4
  %39 = sext i32 %38 to i64
  %40 = getelementptr inbounds [100 x [101 x i8]], [100 x [101 x i8]]* %8, i64 0, i64 %39
  %41 = getelementptr inbounds [101 x i8], [101 x i8]* %40, i64 0, i64 0
  %42 = call i64 @strlen(i8* %41) #3
  %43 = sub i64 %42, 1
  %44 = trunc i64 %43 to i32
  %45 = load i32, i32* %2, align 4
  %46 = sext i32 %45 to i64
  %47 = getelementptr inbounds [100 x i32], [100 x i32]* %5, i64 0, i64 %46
  store i32 %44, i32* %47, align 4
  br label %48

48:                                               ; preds = %16
  %49 = load i32, i32* %2, align 4
  %50 = add nsw i32 %49, 1
  store i32 %50, i32* %2, align 4
  br label %12

51:                                               ; preds = %12
  store i32 0, i32* %2, align 4
  br label %52

52:                                               ; preds = %266, %51
  %53 = load i32, i32* %2, align 4
  %54 = load i32, i32* %1, align 4
  %55 = icmp slt i32 %53, %54
  br i1 %55, label %56, label %269

56:                                               ; preds = %52
  store i32 0, i32* %3, align 4
  br label %57

57:                                               ; preds = %193, %56
  %58 = load i32, i32* %3, align 4
  %59 = load i32, i32* %2, align 4
  %60 = sext i32 %59 to i64
  %61 = getelementptr inbounds [100 x i32], [100 x i32]* %4, i64 0, i64 %60
  %62 = load i32, i32* %61, align 4
  %63 = icmp sle i32 %58, %62
  br i1 %63, label %64, label %196

64:                                               ; preds = %57
  %65 = load i32, i32* %3, align 4
  %66 = load i32, i32* %2, align 4
  %67 = sext i32 %66 to i64
  %68 = getelementptr inbounds [100 x i32], [100 x i32]* %5, i64 0, i64 %67
  %69 = load i32, i32* %68, align 4
  %70 = icmp sle i32 %65, %69
  br i1 %70, label %71, label %168

71:                                               ; preds = %64
  %72 = load i32, i32* %2, align 4
  %73 = sext i32 %72 to i64
  %74 = getelementptr inbounds [100 x [101 x i8]], [100 x [101 x i8]]* %7, i64 0, i64 %73
  %75 = load i32, i32* %2, align 4
  %76 = sext i32 %75 to i64
  %77 = getelementptr inbounds [100 x i32], [100 x i32]* %4, i64 0, i64 %76
  %78 = load i32, i32* %77, align 4
  %79 = load i32, i32* %3, align 4
  %80 = sub nsw i32 %78, %79
  %81 = sext i32 %80 to i64
  %82 = getelementptr inbounds [101 x i8], [101 x i8]* %74, i64 0, i64 %81
  %83 = load i8, i8* %82, align 1
  %84 = sext i8 %83 to i32
  %85 = load i32, i32* %2, align 4
  %86 = sext i32 %85 to i64
  %87 = getelementptr inbounds [100 x [101 x i8]], [100 x [101 x i8]]* %8, i64 0, i64 %86
  %88 = load i32, i32* %2, align 4
  %89 = sext i32 %88 to i64
  %90 = getelementptr inbounds [100 x i32], [100 x i32]* %5, i64 0, i64 %89
  %91 = load i32, i32* %90, align 4
  %92 = load i32, i32* %3, align 4
  %93 = sub nsw i32 %91, %92
  %94 = sext i32 %93 to i64
  %95 = getelementptr inbounds [101 x i8], [101 x i8]* %87, i64 0, i64 %94
  %96 = load i8, i8* %95, align 1
  %97 = sext i8 %96 to i32
  %98 = sub nsw i32 %84, %97
  %99 = add nsw i32 %98, 48
  %100 = trunc i32 %99 to i8
  %101 = load i32, i32* %2, align 4
  %102 = sext i32 %101 to i64
  %103 = getelementptr inbounds [100 x [101 x i8]], [100 x [101 x i8]]* %9, i64 0, i64 %102
  %104 = load i32, i32* %2, align 4
  %105 = sext i32 %104 to i64
  %106 = getelementptr inbounds [100 x i32], [100 x i32]* %4, i64 0, i64 %105
  %107 = load i32, i32* %106, align 4
  %108 = load i32, i32* %3, align 4
  %109 = sub nsw i32 %107, %108
  %110 = sext i32 %109 to i64
  %111 = getelementptr inbounds [101 x i8], [101 x i8]* %103, i64 0, i64 %110
  store i8 %100, i8* %111, align 1
  %112 = load i32, i32* %2, align 4
  %113 = sext i32 %112 to i64
  %114 = getelementptr inbounds [100 x [101 x i8]], [100 x [101 x i8]]* %9, i64 0, i64 %113
  %115 = load i32, i32* %2, align 4
  %116 = sext i32 %115 to i64
  %117 = getelementptr inbounds [100 x i32], [100 x i32]* %4, i64 0, i64 %116
  %118 = load i32, i32* %117, align 4
  %119 = load i32, i32* %3, align 4
  %120 = sub nsw i32 %118, %119
  %121 = sext i32 %120 to i64
  %122 = getelementptr inbounds [101 x i8], [101 x i8]* %114, i64 0, i64 %121
  %123 = load i8, i8* %122, align 1
  %124 = sext i8 %123 to i32
  %125 = icmp slt i32 %124, 48
  br i1 %125, label %126, label %167

126:                                              ; preds = %71
  %127 = load i32, i32* %2, align 4
  %128 = sext i32 %127 to i64
  %129 = getelementptr inbounds [100 x [101 x i8]], [100 x [101 x i8]]* %9, i64 0, i64 %128
  %130 = load i32, i32* %2, align 4
  %131 = sext i32 %130 to i64
  %132 = getelementptr inbounds [100 x i32], [100 x i32]* %4, i64 0, i64 %131
  %133 = load i32, i32* %132, align 4
  %134 = load i32, i32* %3, align 4
  %135 = sub nsw i32 %133, %134
  %136 = sext i32 %135 to i64
  %137 = getelementptr inbounds [101 x i8], [101 x i8]* %129, i64 0, i64 %136
  %138 = load i8, i8* %137, align 1
  %139 = sext i8 %138 to i32
  %140 = add nsw i32 %139, 10
  %141 = trunc i32 %140 to i8
  %142 = load i32, i32* %2, align 4
  %143 = sext i32 %142 to i64
  %144 = getelementptr inbounds [100 x [101 x i8]], [100 x [101 x i8]]* %9, i64 0, i64 %143
  %145 = load i32, i32* %2, align 4
  %146 = sext i32 %145 to i64
  %147 = getelementptr inbounds [100 x i32], [100 x i32]* %4, i64 0, i64 %146
  %148 = load i32, i32* %147, align 4
  %149 = load i32, i32* %3, align 4
  %150 = sub nsw i32 %148, %149
  %151 = sext i32 %150 to i64
  %152 = getelementptr inbounds [101 x i8], [101 x i8]* %144, i64 0, i64 %151
  store i8 %141, i8* %152, align 1
  %153 = load i32, i32* %2, align 4
  %154 = sext i32 %153 to i64
  %155 = getelementptr inbounds [100 x [101 x i8]], [100 x [101 x i8]]* %7, i64 0, i64 %154
  %156 = load i32, i32* %2, align 4
  %157 = sext i32 %156 to i64
  %158 = getelementptr inbounds [100 x i32], [100 x i32]* %4, i64 0, i64 %157
  %159 = load i32, i32* %158, align 4
  %160 = load i32, i32* %3, align 4
  %161 = sub nsw i32 %159, %160
  %162 = sub nsw i32 %161, 1
  %163 = sext i32 %162 to i64
  %164 = getelementptr inbounds [101 x i8], [101 x i8]* %155, i64 0, i64 %163
  %165 = load i8, i8* %164, align 1
  %166 = add i8 %165, -1
  store i8 %166, i8* %164, align 1
  br label %167

167:                                              ; preds = %126, %71
  br label %192

168:                                              ; preds = %64
  %169 = load i32, i32* %2, align 4
  %170 = sext i32 %169 to i64
  %171 = getelementptr inbounds [100 x [101 x i8]], [100 x [101 x i8]]* %7, i64 0, i64 %170
  %172 = load i32, i32* %2, align 4
  %173 = sext i32 %172 to i64
  %174 = getelementptr inbounds [100 x i32], [100 x i32]* %4, i64 0, i64 %173
  %175 = load i32, i32* %174, align 4
  %176 = load i32, i32* %3, align 4
  %177 = sub nsw i32 %175, %176
  %178 = sext i32 %177 to i64
  %179 = getelementptr inbounds [101 x i8], [101 x i8]* %171, i64 0, i64 %178
  %180 = load i8, i8* %179, align 1
  %181 = load i32, i32* %2, align 4
  %182 = sext i32 %181 to i64
  %183 = getelementptr inbounds [100 x [101 x i8]], [100 x [101 x i8]]* %9, i64 0, i64 %182
  %184 = load i32, i32* %2, align 4
  %185 = sext i32 %184 to i64
  %186 = getelementptr inbounds [100 x i32], [100 x i32]* %4, i64 0, i64 %185
  %187 = load i32, i32* %186, align 4
  %188 = load i32, i32* %3, align 4
  %189 = sub nsw i32 %187, %188
  %190 = sext i32 %189 to i64
  %191 = getelementptr inbounds [101 x i8], [101 x i8]* %183, i64 0, i64 %190
  store i8 %180, i8* %191, align 1
  br label %192

192:                                              ; preds = %168, %167
  br label %193

193:                                              ; preds = %192
  %194 = load i32, i32* %3, align 4
  %195 = add nsw i32 %194, 1
  store i32 %195, i32* %3, align 4
  br label %57

196:                                              ; preds = %57
  store i32 0, i32* %3, align 4
  %197 = load i32, i32* %2, align 4
  %198 = sext i32 %197 to i64
  %199 = getelementptr inbounds [100 x i32], [100 x i32]* %6, i64 0, i64 %198
  store i32 0, i32* %199, align 4
  br label %200

200:                                              ; preds = %225, %196
  %201 = load i32, i32* %3, align 4
  %202 = load i32, i32* %2, align 4
  %203 = sext i32 %202 to i64
  %204 = getelementptr inbounds [100 x i32], [100 x i32]* %4, i64 0, i64 %203
  %205 = load i32, i32* %204, align 4
  %206 = icmp sle i32 %201, %205
  br i1 %206, label %207, label %228

207:                                              ; preds = %200
  %208 = load i32, i32* %2, align 4
  %209 = sext i32 %208 to i64
  %210 = getelementptr inbounds [100 x [101 x i8]], [100 x [101 x i8]]* %9, i64 0, i64 %209
  %211 = load i32, i32* %3, align 4
  %212 = sext i32 %211 to i64
  %213 = getelementptr inbounds [101 x i8], [101 x i8]* %210, i64 0, i64 %212
  %214 = load i8, i8* %213, align 1
  %215 = sext i8 %214 to i32
  %216 = icmp eq i32 %215, 48
  br i1 %216, label %217, label %223

217:                                              ; preds = %207
  %218 = load i32, i32* %2, align 4
  %219 = sext i32 %218 to i64
  %220 = getelementptr inbounds [100 x i32], [100 x i32]* %6, i64 0, i64 %219
  %221 = load i32, i32* %220, align 4
  %222 = add nsw i32 %221, 1
  store i32 %222, i32* %220, align 4
  br label %224

223:                                              ; preds = %207
  br label %228

224:                                              ; preds = %217
  br label %225

225:                                              ; preds = %224
  %226 = load i32, i32* %3, align 4
  %227 = add nsw i32 %226, 1
  store i32 %227, i32* %3, align 4
  br label %200

228:                                              ; preds = %223, %200
  %229 = load i32, i32* %2, align 4
  %230 = sext i32 %229 to i64
  %231 = getelementptr inbounds [100 x i32], [100 x i32]* %6, i64 0, i64 %230
  %232 = load i32, i32* %231, align 4
  store i32 %232, i32* %3, align 4
  br label %233

233:                                              ; preds = %250, %228
  %234 = load i32, i32* %3, align 4
  %235 = load i32, i32* %2, align 4
  %236 = sext i32 %235 to i64
  %237 = getelementptr inbounds [100 x i32], [100 x i32]* %4, i64 0, i64 %236
  %238 = load i32, i32* %237, align 4
  %239 = icmp slt i32 %234, %238
  br i1 %239, label %240, label %253

240:                                              ; preds = %233
  %241 = load i32, i32* %2, align 4
  %242 = sext i32 %241 to i64
  %243 = getelementptr inbounds [100 x [101 x i8]], [100 x [101 x i8]]* %9, i64 0, i64 %242
  %244 = load i32, i32* %3, align 4
  %245 = sext i32 %244 to i64
  %246 = getelementptr inbounds [101 x i8], [101 x i8]* %243, i64 0, i64 %245
  %247 = load i8, i8* %246, align 1
  %248 = sext i8 %247 to i32
  %249 = call i32 (i8*, ...) @printf(i8* getelementptr inbounds ([3 x i8], [3 x i8]* @.str.1, i64 0, i64 0), i32 %248)
  br label %250

250:                                              ; preds = %240
  %251 = load i32, i32* %3, align 4
  %252 = add nsw i32 %251, 1
  store i32 %252, i32* %3, align 4
  br label %233

253:                                              ; preds = %233
  %254 = load i32, i32* %2, align 4
  %255 = sext i32 %254 to i64
  %256 = getelementptr inbounds [100 x [101 x i8]], [100 x [101 x i8]]* %9, i64 0, i64 %255
  %257 = load i32, i32* %2, align 4
  %258 = sext i32 %257 to i64
  %259 = getelementptr inbounds [100 x i32], [100 x i32]* %4, i64 0, i64 %258
  %260 = load i32, i32* %259, align 4
  %261 = sext i32 %260 to i64
  %262 = getelementptr inbounds [101 x i8], [101 x i8]* %256, i64 0, i64 %261
  %263 = load i8, i8* %262, align 1
  %264 = sext i8 %263 to i32
  %265 = call i32 (i8*, ...) @printf(i8* getelementptr inbounds ([4 x i8], [4 x i8]* @.str.2, i64 0, i64 0), i32 %264)
  br label %266

266:                                              ; preds = %253
  %267 = load i32, i32* %2, align 4
  %268 = add nsw i32 %267, 1
  store i32 %268, i32* %2, align 4
  br label %52

269:                                              ; preds = %52
  ret void
}

declare dso_local i32 @__isoc99_scanf(i8*, ...) #1

declare dso_local i32 @getchar() #1

declare dso_local i32 @gets(...) #1

; Function Attrs: nounwind readonly
declare dso_local i64 @strlen(i8*) #2

declare dso_local i32 @printf(i8*, ...) #1


!llvm.module.flags = !{!0}
!llvm.ident = !{!1}

!0 = !{i32 1, !"wchar_size", i32 4}
!1 = !{!"clang version 10.0.0-4ubuntu1 "}
